; Function Attrs: nounwind uwtable
define void @Abc_NtkTestTimCollectCone_rec(ptr noundef %0, ptr noundef captures(none) %1) local_unnamed_addr #0 {
  %.val2.i = load ptr, ptr %0, align 8
  %3 = getelementptr i8, ptr %0, i64 16
  %.val3.i = load i32, ptr %3, align 8
  %4 = getelementptr inbounds nuw i8, ptr %.val2.i, i64 224
  %5 = add nsw i32 %.val3.i, 1
  tail call fastcc void @Vec_IntFillExtra(ptr noundef nonnull %4, i32 noundef %5)
  %6 = getelementptr i8, ptr %.val2.i, i64 232
  %.val.i.i.i = load ptr, ptr %6, align 8
  %7 = sext i32 %.val3.i to i64
  %8 = getelementptr inbounds i32, ptr %.val.i.i.i, i64 %7
  %9 = load i32, ptr %8, align 4
  %.val.i = load ptr, ptr %0, align 8
  %10 = getelementptr inbounds nuw i8, ptr %.val.i, i64 216
  %11 = load i32, ptr %10, align 8
  %.not = icmp eq i32 %9, %11
  br i1 %.not, label %64, label %12

12:                                               ; preds = %2
  %.val15 = load i32, ptr %3, align 8
  %13 = getelementptr inbounds nuw i8, ptr %.val.i, i64 224
  %14 = add nsw i32 %.val15, 1
  tail call fastcc void @Vec_IntFillExtra(ptr noundef nonnull %13, i32 noundef %14)
  %15 = getelementptr i8, ptr %.val.i, i64 232
  %.val.i.i.i17 = load ptr, ptr %15, align 8
  %16 = sext i32 %.val15 to i64
  %17 = getelementptr inbounds i32, ptr %.val.i.i.i17, i64 %16
  store i32 %11, ptr %17, align 4
  %18 = getelementptr i8, ptr %0, i64 20
  %.val16 = load i32, ptr %18, align 4
  %19 = and i32 %.val16, 15
  switch i32 %19, label %.preheader [
    i32 5, label %64
    i32 2, label %64
  ]

.preheader:                                       ; preds = %12
  %20 = getelementptr i8, ptr %0, i64 28
  %.val20 = load i32, ptr %20, align 4
  %21 = icmp sgt i32 %.val20, 0
  br i1 %21, label %.lr.ph, label %.critedge

.lr.ph:                                           ; preds = %.preheader
  %22 = getelementptr i8, ptr %0, i64 32
  br label %23

23:                                               ; preds = %.lr.ph, %23
  %indvars.iv = phi i64 [ 0, %.lr.ph ], [ %indvars.iv.next, %23 ]
  %.val12 = load ptr, ptr %0, align 8
  %.val13 = load ptr, ptr %22, align 8
  %24 = getelementptr i8, ptr %.val12, i64 32
  %.val12.val = load ptr, ptr %24, align 8
  %25 = getelementptr i8, ptr %.val12.val, i64 8
  %.val12.val.val = load ptr, ptr %25, align 8
  %26 = getelementptr inbounds nuw i32, ptr %.val13, i64 %indvars.iv
  %27 = load i32, ptr %26, align 4
  %28 = sext i32 %27 to i64
  %29 = getelementptr inbounds ptr, ptr %.val12.val.val, i64 %28
  %30 = load ptr, ptr %29, align 8
  tail call void @Abc_NtkTestTimCollectCone_rec(ptr noundef %30, ptr noundef %1)
  %indvars.iv.next = add nuw nsw i64 %indvars.iv, 1
  %.val = load i32, ptr %20, align 4
  %31 = sext i32 %.val to i64
  %32 = icmp slt i64 %indvars.iv.next, %31
  br i1 %32, label %23, label %.critedge, !llvm.loop !6

.critedge:                                        ; preds = %23, %.preheader
  %33 = getelementptr inbounds nuw i8, ptr %1, i64 4
  %34 = load i32, ptr %33, align 4
  %35 = load i32, ptr %1, align 8
  %36 = icmp eq i32 %34, %35
  br i1 %36, label %37, label %.Vec_PtrGrow.exit11_crit_edge.i

.Vec_PtrGrow.exit11_crit_edge.i:                  ; preds = %.critedge
  %.phi.trans.insert.i = getelementptr inbounds nuw i8, ptr %1, i64 8
  %.pre.i = load ptr, ptr %.phi.trans.insert.i, align 8
  br label %Vec_PtrPush.exit

37:                                               ; preds = %.critedge
  %38 = icmp slt i32 %34, 16
  br i1 %38, label %39, label %47

39:                                               ; preds = %37
  %40 = getelementptr inbounds nuw i8, ptr %1, i64 8
  %41 = load ptr, ptr %40, align 8
  %.not9.i.i = icmp eq ptr %41, null
  br i1 %.not9.i.i, label %44, label %42

42:                                               ; preds = %39
  %43 = tail call dereferenceable_or_null(128) ptr @realloc(ptr noundef nonnull %41, i64 noundef 128) #12
  br label %Vec_PtrGrow.exit.i

44:                                               ; preds = %39
  %45 = tail call noalias dereferenceable_or_null(128) ptr @malloc(i64 noundef 128) #13
  br label %Vec_PtrGrow.exit.i

Vec_PtrGrow.exit.i:                               ; preds = %44, %42
  %46 = phi ptr [ %43, %42 ], [ %45, %44 ]
  store ptr %46, ptr %40, align 8
  store i32 16, ptr %1, align 8
  br label %Vec_PtrPush.exit

47:                                               ; preds = %37
  %48 = shl nuw nsw i32 %34, 1
  %49 = getelementptr inbounds nuw i8, ptr %1, i64 8
  %50 = load ptr, ptr %49, align 8
  %.not9.i10.i = icmp eq ptr %50, null
  %51 = zext nneg i32 %48 to i64
  %52 = shl nuw nsw i64 %51, 3
  br i1 %.not9.i10.i, label %55, label %53

53:                                               ; preds = %47
  %54 = tail call ptr @realloc(ptr noundef nonnull %50, i64 noundef %52) #12
  br label %57

55:                                               ; preds = %47
  %56 = tail call noalias ptr @malloc(i64 noundef %52) #13
  br label %57

57:                                               ; preds = %55, %53
  %58 = phi ptr [ %54, %53 ], [ %56, %55 ]
  store ptr %58, ptr %49, align 8
  store i32 %48, ptr %1, align 8
  br label %Vec_PtrPush.exit

Vec_PtrPush.exit:                                 ; preds = %.Vec_PtrGrow.exit11_crit_edge.i, %Vec_PtrGrow.exit.i, %57
  %59 = phi ptr [ %.pre.i, %.Vec_PtrGrow.exit11_crit_edge.i ], [ %58, %57 ], [ %46, %Vec_PtrGrow.exit.i ]
  %60 = load i32, ptr %33, align 4
  %61 = add nsw i32 %60, 1
  store i32 %61, ptr %33, align 4
  %62 = sext i32 %60 to i64
  %63 = getelementptr inbounds ptr, ptr %59, i64 %62
  store ptr %0, ptr %63, align 8
  br label %64

64:                                               ; preds = %12, %12, %2, %Vec_PtrPush.exit
  ret void
}